; Function Attrs: nounwind uwtable
define internal i32 @spki2typespki_decode(ptr noundef %0, ptr noundef %1, i32 %2, ptr noundef readonly captures(none) %3, ptr noundef %4, ptr readnone captures(none) %5, ptr readnone captures(none) %6) #0 {
  %8 = alloca ptr, align 8
  %9 = alloca ptr, align 8
  %10 = alloca i64, align 8
  %11 = alloca i32, align 4
  %12 = alloca ptr, align 8
  %13 = alloca ptr, align 8
  %14 = alloca [50 x i8], align 16
  %15 = alloca [5 x %struct.ossl_param_st], align 16
  %16 = alloca %struct.ossl_param_st, align 8
  %17 = alloca %struct.ossl_param_st, align 8
  %18 = alloca %struct.ossl_param_st, align 8
  %19 = alloca %struct.ossl_param_st, align 8
  call void @llvm.lifetime.start.p0(i64 8, ptr nonnull %8) #5
  call void @llvm.lifetime.start.p0(i64 8, ptr nonnull %9) #5
  call void @llvm.lifetime.start.p0(i64 8, ptr nonnull %10) #5
  call void @llvm.lifetime.start.p0(i64 4, ptr nonnull %11) #5
  store i32 2, ptr %11, align 4, !tbaa !9
  call void @llvm.lifetime.start.p0(i64 8, ptr nonnull %12) #5
  store ptr null, ptr %12, align 8, !tbaa !11
  call void @llvm.lifetime.start.p0(i64 8, ptr nonnull %13) #5
  store ptr null, ptr %13, align 8, !tbaa !13
  call void @llvm.lifetime.start.p0(i64 50, ptr nonnull %14) #5
  call void @llvm.lifetime.start.p0(i64 200, ptr nonnull %15) #5
  %20 = load ptr, ptr %0, align 8, !tbaa !3
  %21 = call i32 @ossl_read_der(ptr noundef %20, ptr noundef %1, ptr noundef nonnull %8, ptr noundef nonnull %10) #5
  %.not = icmp eq i32 %21, 0
  br i1 %.not, label %55, label %22

22:                                               ; preds = %7
  %23 = load ptr, ptr %8, align 8, !tbaa !15
  store ptr %23, ptr %9, align 8, !tbaa !15
  %24 = load i64, ptr %10, align 8, !tbaa !17
  %25 = load ptr, ptr %0, align 8, !tbaa !3
  %26 = call ptr @ossl_prov_ctx_get0_libctx(ptr noundef %25) #5
  %27 = getelementptr inbounds nuw i8, ptr %0, i64 8
  %28 = call ptr @ossl_d2i_X509_PUBKEY_INTERNAL(ptr noundef nonnull %9, i64 noundef %24, ptr noundef %26, ptr noundef nonnull %27) #5
  %29 = icmp eq ptr %28, null
  br i1 %29, label %53, label %30

30:                                               ; preds = %22
  %31 = call i32 @X509_PUBKEY_get0_param(ptr noundef null, ptr noundef null, ptr noundef null, ptr noundef nonnull %12, ptr noundef nonnull %28) #5
  %.not20 = icmp eq i32 %31, 0
  br i1 %.not20, label %53, label %32

32:                                               ; preds = %30
  %33 = load ptr, ptr %12, align 8, !tbaa !11
  call void @X509_ALGOR_get0(ptr noundef nonnull %13, ptr noundef null, ptr noundef null, ptr noundef %33) #5
  %34 = load ptr, ptr %13, align 8, !tbaa !13
  %35 = call i32 @OBJ_obj2nid(ptr noundef %34) #5
  %36 = icmp eq i32 %35, 408
  br i1 %36, label %37, label %41

37:                                               ; preds = %32
  %38 = load ptr, ptr %12, align 8, !tbaa !11
  %39 = call i32 @ossl_x509_algor_is_sm2(ptr noundef %38) #5
  %.not21 = icmp eq i32 %39, 0
  br i1 %.not21, label %41, label %40

40:                                               ; preds = %37
  store i32 3296595, ptr %14, align 16
  br label %45

41:                                               ; preds = %37, %32
  %42 = load ptr, ptr %13, align 8, !tbaa !13
  %43 = call i32 @OBJ_obj2txt(ptr noundef nonnull %14, i32 noundef 50, ptr noundef %42, i32 noundef 0) #5
  %44 = icmp slt i32 %43, 1
  br i1 %44, label %53, label %45

45:                                               ; preds = %41, %40
  call void @ossl_X509_PUBKEY_INTERNAL_free(ptr noundef nonnull %28) #5
  %46 = getelementptr inbounds nuw i8, ptr %15, i64 40
  call void @OSSL_PARAM_construct_utf8_string(ptr dead_on_unwind nonnull writable sret(%struct.ossl_param_st) align 8 %15, ptr noundef nonnull @.str.2, ptr noundef nonnull %14, i64 noundef 0) #5
  %47 = getelementptr inbounds nuw i8, ptr %15, i64 80
  call void @llvm.lifetime.start.p0(i64 40, ptr nonnull %16) #5
  call void @OSSL_PARAM_construct_utf8_string(ptr dead_on_unwind nonnull writable sret(%struct.ossl_param_st) align 8 %16, ptr noundef nonnull @.str.3, ptr noundef nonnull @.str.4, i64 noundef 0) #5
  call void @llvm.memcpy.p0.p0.i64(ptr noundef nonnull align 8 dereferenceable(40) %46, ptr noundef nonnull align 8 dereferenceable(40) %16, i64 40, i1 false), !tbaa.struct !19
  call void @llvm.lifetime.end.p0(i64 40, ptr nonnull %16) #5
  %48 = getelementptr inbounds nuw i8, ptr %15, i64 120
  call void @llvm.lifetime.start.p0(i64 40, ptr nonnull %17) #5
  %49 = load ptr, ptr %8, align 8, !tbaa !15
  %50 = load i64, ptr %10, align 8, !tbaa !17
  call void @OSSL_PARAM_construct_octet_string(ptr dead_on_unwind nonnull writable sret(%struct.ossl_param_st) align 8 %17, ptr noundef nonnull @.str.5, ptr noundef %49, i64 noundef %50) #5
  call void @llvm.memcpy.p0.p0.i64(ptr noundef nonnull align 16 dereferenceable(40) %47, ptr noundef nonnull align 8 dereferenceable(40) %17, i64 40, i1 false), !tbaa.struct !19
  call void @llvm.lifetime.end.p0(i64 40, ptr nonnull %17) #5
  %51 = getelementptr inbounds nuw i8, ptr %15, i64 160
  call void @llvm.lifetime.start.p0(i64 40, ptr nonnull %18) #5
  call void @OSSL_PARAM_construct_int(ptr dead_on_unwind nonnull writable sret(%struct.ossl_param_st) align 8 %18, ptr noundef nonnull @.str.6, ptr noundef nonnull %11) #5
  call void @llvm.memcpy.p0.p0.i64(ptr noundef nonnull align 8 dereferenceable(40) %48, ptr noundef nonnull align 8 dereferenceable(40) %18, i64 40, i1 false), !tbaa.struct !19
  call void @llvm.lifetime.end.p0(i64 40, ptr nonnull %18) #5
  call void @llvm.lifetime.start.p0(i64 40, ptr nonnull %19) #5
  call void @OSSL_PARAM_construct_end(ptr dead_on_unwind nonnull writable sret(%struct.ossl_param_st) align 8 %19) #5
  call void @llvm.memcpy.p0.p0.i64(ptr noundef nonnull align 16 dereferenceable(40) %51, ptr noundef nonnull align 8 dereferenceable(40) %19, i64 40, i1 false), !tbaa.struct !19
  call void @llvm.lifetime.end.p0(i64 40, ptr nonnull %19) #5
  %52 = call i32 %3(ptr noundef nonnull %15, ptr noundef %4) #5
  br label %53

53:                                               ; preds = %22, %41, %30, %45
  %.017 = phi i32 [ %52, %45 ], [ 0, %41 ], [ 0, %30 ], [ 1, %22 ]
  %.0 = phi ptr [ null, %45 ], [ %28, %41 ], [ %28, %30 ], [ null, %22 ]
  call void @ossl_X509_PUBKEY_INTERNAL_free(ptr noundef %.0) #5
  %54 = load ptr, ptr %8, align 8, !tbaa !15
  call void @CRYPTO_free(ptr noundef %54, ptr noundef nonnull @.str, i32 noundef 140) #5
  br label %55

55:                                               ; preds = %7, %53
  %.018 = phi i32 [ %.017, %53 ], [ 1, %7 ]
  call void @llvm.lifetime.end.p0(i64 200, ptr nonnull %15) #5
  call void @llvm.lifetime.end.p0(i64 50, ptr nonnull %14) #5
  call void @llvm.lifetime.end.p0(i64 8, ptr nonnull %13) #5
  call void @llvm.lifetime.end.p0(i64 8, ptr nonnull %12) #5
  call void @llvm.lifetime.end.p0(i64 4, ptr nonnull %11) #5
  call void @llvm.lifetime.end.p0(i64 8, ptr nonnull %10) #5
  call void @llvm.lifetime.end.p0(i64 8, ptr nonnull %9) #5
  call void @llvm.lifetime.end.p0(i64 8, ptr nonnull %8) #5
  ret i32 %.018
}